; Function Attrs: mustprogress uwtable
define void @_ZNK2cv4face14FaceRecognizer7predictERKNS_11_InputArrayERiRd(ptr noundef nonnull align 8 dereferenceable(56) %0, ptr noundef nonnull align 8 dereferenceable(24) %1, ptr noundef nonnull writeonly align 4 captures(none) dereferenceable(4) %2, ptr noundef nonnull writeonly align 8 captures(none) dereferenceable(8) %3) local_unnamed_addr #3 align 2 personality ptr @__gxx_personality_v0 {
  %5 = alloca %"struct.cv::Ptr.6", align 8
  %6 = alloca %"struct.cv::Ptr.10", align 8
  call void @llvm.lifetime.start.p0(i64 16, ptr nonnull %5) #21
  %7 = load ptr, ptr %0, align 8, !tbaa !34
  %8 = getelementptr inbounds nuw i8, ptr %7, i64 128
  %9 = load ptr, ptr %8, align 8
  %10 = tail call noundef double %9(ptr noundef nonnull align 8 dereferenceable(56) %0)
  call void @_ZN2cv4face17StandardCollector6createEd(ptr dead_on_unwind nonnull writable sret(%"struct.cv::Ptr.6") align 8 %5, double noundef %10)
  %11 = load ptr, ptr %5, align 8, !tbaa !36
  store ptr %11, ptr %6, align 8, !tbaa !41
  %12 = getelementptr inbounds nuw i8, ptr %6, i64 8
  %13 = getelementptr inbounds nuw i8, ptr %5, i64 8
  %14 = load ptr, ptr %13, align 8, !tbaa !44
  store ptr %14, ptr %12, align 8, !tbaa !44
  %.not.i.i.i.i = icmp eq ptr %14, null
  br i1 %.not.i.i.i.i, label %_ZN2cv3PtrINS_4face16PredictCollectorEEC2INS1_17StandardCollectorEEERKNS0_IT_EE.exit, label %15

15:                                               ; preds = %4
  %16 = getelementptr inbounds nuw i8, ptr %14, i64 8
  %17 = load i8, ptr @__libc_single_threaded, align 1, !tbaa !31
  %.not.i.i.i.i.i = icmp eq i8 %17, 0
  br i1 %.not.i.i.i.i.i, label %21, label %18

18:                                               ; preds = %15
  %19 = load i32, ptr %16, align 4, !tbaa !21
  %20 = add nsw i32 %19, 1
  store i32 %20, ptr %16, align 4, !tbaa !21
  br label %_ZN2cv3PtrINS_4face16PredictCollectorEEC2INS1_17StandardCollectorEEERKNS0_IT_EE.exit

21:                                               ; preds = %15
  %22 = atomicrmw volatile add ptr %16, i32 1 acq_rel, align 4
  br label %_ZN2cv3PtrINS_4face16PredictCollectorEEC2INS1_17StandardCollectorEEERKNS0_IT_EE.exit

_ZN2cv3PtrINS_4face16PredictCollectorEEC2INS1_17StandardCollectorEEERKNS0_IT_EE.exit: ; preds = %4, %18, %21
  %23 = load ptr, ptr %0, align 8, !tbaa !34
  %24 = getelementptr inbounds nuw i8, ptr %23, i64 80
  %25 = load ptr, ptr %24, align 8
  invoke void %25(ptr noundef nonnull align 8 dereferenceable(56) %0, ptr noundef nonnull align 8 dereferenceable(24) %1, ptr noundef nonnull %6)
          to label %26 unwind label %77

26:                                               ; preds = %_ZN2cv3PtrINS_4face16PredictCollectorEEC2INS1_17StandardCollectorEEERKNS0_IT_EE.exit
  %27 = load ptr, ptr %12, align 8, !tbaa !44
  %.not.i.i = icmp eq ptr %27, null
  br i1 %.not.i.i, label %_ZNSt12__shared_ptrIN2cv4face16PredictCollectorELN9__gnu_cxx12_Lock_policyE2EED2Ev.exit, label %28

28:                                               ; preds = %26
  %29 = getelementptr inbounds nuw i8, ptr %27, i64 8
  %30 = load atomic i64, ptr %29 acquire, align 8
  %31 = icmp eq i64 %30, 4294967297
  %32 = trunc i64 %30 to i32
  br i1 %31, label %33, label %41

33:                                               ; preds = %28
  store i32 0, ptr %29, align 8, !tbaa !45
  %34 = getelementptr inbounds nuw i8, ptr %27, i64 12
  store i32 0, ptr %34, align 4, !tbaa !47
  %35 = load ptr, ptr %27, align 8, !tbaa !34
  %36 = getelementptr inbounds nuw i8, ptr %35, i64 16
  %37 = load ptr, ptr %36, align 8
  call void %37(ptr noundef nonnull align 8 dereferenceable(16) %27) #21
  %38 = load ptr, ptr %27, align 8, !tbaa !34
  %39 = getelementptr inbounds nuw i8, ptr %38, i64 24
  %40 = load ptr, ptr %39, align 8
  call void %40(ptr noundef nonnull align 8 dereferenceable(16) %27) #21
  br label %_ZNSt12__shared_ptrIN2cv4face16PredictCollectorELN9__gnu_cxx12_Lock_policyE2EED2Ev.exit

41:                                               ; preds = %28
  %42 = load i8, ptr @__libc_single_threaded, align 1, !tbaa !31
  %.not.i.i.i = icmp eq i8 %42, 0
  br i1 %.not.i.i.i, label %45, label %43

43:                                               ; preds = %41
  %44 = add nsw i32 %32, -1
  store i32 %44, ptr %29, align 4, !tbaa !21
  br label %_ZN9__gnu_cxx27__exchange_and_add_dispatchEPii.exit.i.i.i

45:                                               ; preds = %41
  %46 = atomicrmw volatile add ptr %29, i32 -1 acq_rel, align 4
  br label %_ZN9__gnu_cxx27__exchange_and_add_dispatchEPii.exit.i.i.i

_ZN9__gnu_cxx27__exchange_and_add_dispatchEPii.exit.i.i.i: ; preds = %45, %43
  %.0.i.i.i.i = phi i32 [ %32, %43 ], [ %46, %45 ]
  %47 = icmp eq i32 %.0.i.i.i.i, 1
  br i1 %47, label %48, label %_ZNSt12__shared_ptrIN2cv4face16PredictCollectorELN9__gnu_cxx12_Lock_policyE2EED2Ev.exit, !prof !48

48:                                               ; preds = %_ZN9__gnu_cxx27__exchange_and_add_dispatchEPii.exit.i.i.i
  call void @_ZNSt16_Sp_counted_baseILN9__gnu_cxx12_Lock_policyE2EE24_M_release_last_use_coldEv(ptr noundef nonnull align 8 dereferenceable(16) %27) #21
  br label %_ZNSt12__shared_ptrIN2cv4face16PredictCollectorELN9__gnu_cxx12_Lock_policyE2EED2Ev.exit

_ZNSt12__shared_ptrIN2cv4face16PredictCollectorELN9__gnu_cxx12_Lock_policyE2EED2Ev.exit: ; preds = %26, %33, %_ZN9__gnu_cxx27__exchange_and_add_dispatchEPii.exit.i.i.i, %48
  %49 = load ptr, ptr %5, align 8, !tbaa !36
  %50 = invoke noundef i32 @_ZNK2cv4face17StandardCollector11getMinLabelEv(ptr noundef nonnull align 8 dereferenceable(56) %49)
          to label %51 unwind label %79

51:                                               ; preds = %_ZNSt12__shared_ptrIN2cv4face16PredictCollectorELN9__gnu_cxx12_Lock_policyE2EED2Ev.exit
  store i32 %50, ptr %2, align 4, !tbaa !21
  %52 = load ptr, ptr %5, align 8, !tbaa !36
  %53 = invoke noundef double @_ZNK2cv4face17StandardCollector10getMinDistEv(ptr noundef nonnull align 8 dereferenceable(56) %52)
          to label %54 unwind label %79

54:                                               ; preds = %51
  store double %53, ptr %3, align 8, !tbaa !49
  %55 = load ptr, ptr %13, align 8, !tbaa !44
  %.not.i.i7 = icmp eq ptr %55, null
  br i1 %.not.i.i7, label %_ZNSt12__shared_ptrIN2cv4face17StandardCollectorELN9__gnu_cxx12_Lock_policyE2EED2Ev.exit, label %56

56:                                               ; preds = %54
  %57 = getelementptr inbounds nuw i8, ptr %55, i64 8
  %58 = load atomic i64, ptr %57 acquire, align 8
  %59 = icmp eq i64 %58, 4294967297
  %60 = trunc i64 %58 to i32
  br i1 %59, label %61, label %69

61:                                               ; preds = %56
  store i32 0, ptr %57, align 8, !tbaa !45
  %62 = getelementptr inbounds nuw i8, ptr %55, i64 12
  store i32 0, ptr %62, align 4, !tbaa !47
  %63 = load ptr, ptr %55, align 8, !tbaa !34
  %64 = getelementptr inbounds nuw i8, ptr %63, i64 16
  %65 = load ptr, ptr %64, align 8
  call void %65(ptr noundef nonnull align 8 dereferenceable(16) %55) #21
  %66 = load ptr, ptr %55, align 8, !tbaa !34
  %67 = getelementptr inbounds nuw i8, ptr %66, i64 24
  %68 = load ptr, ptr %67, align 8
  call void %68(ptr noundef nonnull align 8 dereferenceable(16) %55) #21
  br label %_ZNSt12__shared_ptrIN2cv4face17StandardCollectorELN9__gnu_cxx12_Lock_policyE2EED2Ev.exit

69:                                               ; preds = %56
  %70 = load i8, ptr @__libc_single_threaded, align 1, !tbaa !31
  %.not.i.i.i8 = icmp eq i8 %70, 0
  br i1 %.not.i.i.i8, label %73, label %71

71:                                               ; preds = %69
  %72 = add nsw i32 %60, -1
  store i32 %72, ptr %57, align 4, !tbaa !21
  br label %_ZN9__gnu_cxx27__exchange_and_add_dispatchEPii.exit.i.i.i9

73:                                               ; preds = %69
  %74 = atomicrmw volatile add ptr %57, i32 -1 acq_rel, align 4
  br label %_ZN9__gnu_cxx27__exchange_and_add_dispatchEPii.exit.i.i.i9

_ZN9__gnu_cxx27__exchange_and_add_dispatchEPii.exit.i.i.i9: ; preds = %73, %71
  %.0.i.i.i.i10 = phi i32 [ %60, %71 ], [ %74, %73 ]
  %75 = icmp eq i32 %.0.i.i.i.i10, 1
  br i1 %75, label %76, label %_ZNSt12__shared_ptrIN2cv4face17StandardCollectorELN9__gnu_cxx12_Lock_policyE2EED2Ev.exit, !prof !48

76:                                               ; preds = %_ZN9__gnu_cxx27__exchange_and_add_dispatchEPii.exit.i.i.i9
  call void @_ZNSt16_Sp_counted_baseILN9__gnu_cxx12_Lock_policyE2EE24_M_release_last_use_coldEv(ptr noundef nonnull align 8 dereferenceable(16) %55) #21
  br label %_ZNSt12__shared_ptrIN2cv4face17StandardCollectorELN9__gnu_cxx12_Lock_policyE2EED2Ev.exit

_ZNSt12__shared_ptrIN2cv4face17StandardCollectorELN9__gnu_cxx12_Lock_policyE2EED2Ev.exit: ; preds = %54, %61, %_ZN9__gnu_cxx27__exchange_and_add_dispatchEPii.exit.i.i.i9, %76
  call void @llvm.lifetime.end.p0(i64 16, ptr nonnull %5) #21
  ret void

77:                                               ; preds = %_ZN2cv3PtrINS_4face16PredictCollectorEEC2INS1_17StandardCollectorEEERKNS0_IT_EE.exit
  %78 = landingpad { ptr, i32 }
          cleanup
  call void @_ZNSt12__shared_ptrIN2cv4face16PredictCollectorELN9__gnu_cxx12_Lock_policyE2EED2Ev(ptr noundef nonnull align 8 dereferenceable(16) %6) #21
  br label %81

79:                                               ; preds = %51, %_ZNSt12__shared_ptrIN2cv4face16PredictCollectorELN9__gnu_cxx12_Lock_policyE2EED2Ev.exit
  %80 = landingpad { ptr, i32 }
          cleanup
  br label %81

81:                                               ; preds = %79, %77
  %.pn = phi { ptr, i32 } [ %80, %79 ], [ %78, %77 ]
  call void @_ZNSt12__shared_ptrIN2cv4face17StandardCollectorELN9__gnu_cxx12_Lock_policyE2EED2Ev(ptr noundef nonnull align 8 dereferenceable(16) %5) #21
  call void @llvm.lifetime.end.p0(i64 16, ptr nonnull %5) #21
  resume { ptr, i32 } %.pn
}